target datalayout = "e-m:e-p270:32:32-p271:32:32-p272:64:64-i64:64-i128:128-f80:128-n8:16:32:64-S128"
target triple = "x86_64-pc-linux-gnu"

%struct.strvec = type { ptr, i64, i64 }
%struct.trace_key = type { ptr, i32, i8 }
%struct.child_process = type { %struct.strvec, %struct.strvec, i32, i32, i64, ptr, ptr, i32, i32, i32, ptr, i16, ptr }
%struct.child_to_clean = type { i32, ptr, ptr }

@.str = private unnamed_addr constant [14 x i8] c"run-command.c\00", align 1
@trace_default_key = external global %struct.trace_key, align 8
@children_to_clean = internal global ptr null, align 8
@.str.57 = private unnamed_addr constant [53 x i8] c"trace: run_command: running exit handler for pid %lu\00", align 1

; Function Attrs: inlinehint nounwind uwtable
define internal i32 @trace_pass_fl(ptr noundef %0) #7 {
  %2 = alloca ptr, align 8
  store ptr %0, ptr %2, align 8, !tbaa !58
  %3 = load ptr, ptr %2, align 8, !tbaa !58
  %4 = getelementptr inbounds nuw %struct.trace_key, ptr %3, i32 0, i32 1
  %5 = load i32, ptr %4, align 8, !tbaa !60
  %6 = icmp ne i32 %5, 0
  br i1 %6, label %15, label %7

7:                                                ; preds = %1
  %8 = load ptr, ptr %2, align 8, !tbaa !58
  %9 = getelementptr inbounds nuw %struct.trace_key, ptr %8, i32 0, i32 2
  %10 = load i8, ptr %9, align 4
  %11 = and i8 %10, 1
  %12 = zext i8 %11 to i32
  %13 = icmp ne i32 %12, 0
  %14 = xor i1 %13, true
  br label %15

15:                                               ; preds = %7, %1
  %16 = phi i1 [ true, %1 ], [ %14, %7 ]
  %17 = zext i1 %16 to i32
  ret i32 %17
}

; Function Attrs: nounwind uwtable
define internal void @cleanup_children(i32 noundef %0, i32 noundef %1) #0 {
  %3 = alloca i32, align 4
  %4 = alloca i32, align 4
  %5 = alloca ptr, align 8
  %6 = alloca ptr, align 8
  %7 = alloca ptr, align 8
  %8 = alloca ptr, align 8
  store i32 %0, ptr %3, align 4, !tbaa !16
  store i32 %1, ptr %4, align 4, !tbaa !16
  call void @llvm.lifetime.start.p0(i64 8, ptr %5) #13
  store ptr null, ptr %5, align 8, !tbaa !81
  br label %9

9:                                                ; preds = %80, %2
  %10 = load ptr, ptr @children_to_clean, align 8, !tbaa !81
  %11 = icmp ne ptr %10, null
  br i1 %11, label %12, label %81

12:                                               ; preds = %9
  call void @llvm.lifetime.start.p0(i64 8, ptr %6) #13
  %13 = load ptr, ptr @children_to_clean, align 8, !tbaa !81
  store ptr %13, ptr %6, align 8, !tbaa !81
  %14 = load ptr, ptr %6, align 8, !tbaa !81
  %15 = getelementptr inbounds nuw %struct.child_to_clean, ptr %14, i32 0, i32 2
  %16 = load ptr, ptr %15, align 8, !tbaa !86
  store ptr %16, ptr @children_to_clean, align 8, !tbaa !81
  %17 = load ptr, ptr %6, align 8, !tbaa !81
  %18 = getelementptr inbounds nuw %struct.child_to_clean, ptr %17, i32 0, i32 1
  %19 = load ptr, ptr %18, align 8, !tbaa !85
  %20 = icmp ne ptr %19, null
  br i1 %20, label %21, label %49

21:                                               ; preds = %12
  %22 = load i32, ptr %4, align 4, !tbaa !16
  %23 = icmp ne i32 %22, 0
  br i1 %23, label %49, label %24

24:                                               ; preds = %21
  call void @llvm.lifetime.start.p0(i64 8, ptr %7) #13
  %25 = load ptr, ptr %6, align 8, !tbaa !81
  %26 = getelementptr inbounds nuw %struct.child_to_clean, ptr %25, i32 0, i32 1
  %27 = load ptr, ptr %26, align 8, !tbaa !85
  store ptr %27, ptr %7, align 8, !tbaa !4
  %28 = load ptr, ptr %7, align 8, !tbaa !4
  %29 = getelementptr inbounds nuw %struct.child_process, ptr %28, i32 0, i32 12
  %30 = load ptr, ptr %29, align 8, !tbaa !174
  %31 = icmp ne ptr %30, null
  br i1 %31, label %32, label %48

32:                                               ; preds = %24
  br label %33

33:                                               ; preds = %32
  %34 = call i32 @trace_pass_fl(ptr noundef @trace_default_key)
  %35 = icmp ne i32 %34, 0
  br i1 %35, label %36, label %41

36:                                               ; preds = %33
  %37 = load ptr, ptr %6, align 8, !tbaa !81
  %38 = getelementptr inbounds nuw %struct.child_to_clean, ptr %37, i32 0, i32 0
  %39 = load i32, ptr %38, align 8, !tbaa !83
  %40 = sext i32 %39 to i64
  call void (ptr, i32, ptr, ptr, ...) @trace_printf_key_fl(ptr noundef @.str, i32 noundef 56, ptr noundef @trace_default_key, ptr noundef @.str.57, i64 noundef %40)
  br label %41

41:                                               ; preds = %36, %33
  br label %42

42:                                               ; preds = %41
  br label %43

43:                                               ; preds = %42
  %44 = load ptr, ptr %7, align 8, !tbaa !4
  %45 = getelementptr inbounds nuw %struct.child_process, ptr %44, i32 0, i32 12
  %46 = load ptr, ptr %45, align 8, !tbaa !174
  %47 = load ptr, ptr %7, align 8, !tbaa !4
  call void %46(ptr noundef %47)
  br label %48

48:                                               ; preds = %43, %24
  call void @llvm.lifetime.end.p0(i64 8, ptr %7) #13
  br label %49

49:                                               ; preds = %48, %21, %12
  %50 = load ptr, ptr %6, align 8, !tbaa !81
  %51 = getelementptr inbounds nuw %struct.child_to_clean, ptr %50, i32 0, i32 0
  %52 = load i32, ptr %51, align 8, !tbaa !83
  %53 = load i32, ptr %3, align 4, !tbaa !16
  %54 = call i32 @kill(i32 noundef %52, i32 noundef %53) #13
  %55 = load ptr, ptr %6, align 8, !tbaa !81
  %56 = getelementptr inbounds nuw %struct.child_to_clean, ptr %55, i32 0, i32 1
  %57 = load ptr, ptr %56, align 8, !tbaa !85
  %58 = icmp ne ptr %57, null
  br i1 %58, label %59, label %74

59:                                               ; preds = %49
  %60 = load ptr, ptr %6, align 8, !tbaa !81
  %61 = getelementptr inbounds nuw %struct.child_to_clean, ptr %60, i32 0, i32 1
  %62 = load ptr, ptr %61, align 8, !tbaa !85
  %63 = getelementptr inbounds nuw %struct.child_process, ptr %62, i32 0, i32 11
  %64 = load i16, ptr %63, align 8
  %65 = lshr i16 %64, 9
  %66 = and i16 %65, 1
  %67 = zext i16 %66 to i32
  %68 = icmp ne i32 %67, 0
  br i1 %68, label %69, label %74

69:                                               ; preds = %59
  %70 = load ptr, ptr %5, align 8, !tbaa !81
  %71 = load ptr, ptr %6, align 8, !tbaa !81
  %72 = getelementptr inbounds nuw %struct.child_to_clean, ptr %71, i32 0, i32 2
  store ptr %70, ptr %72, align 8, !tbaa !86
  %73 = load ptr, ptr %6, align 8, !tbaa !81
  store ptr %73, ptr %5, align 8, !tbaa !81
  br label %80

74:                                               ; preds = %59, %49
  %75 = load i32, ptr %4, align 4, !tbaa !16
  %76 = icmp ne i32 %75, 0
  br i1 %76, label %79, label %77

77:                                               ; preds = %74
  %78 = load ptr, ptr %6, align 8, !tbaa !81
  call void @free(ptr noundef %78) #13
  br label %79

79:                                               ; preds = %77, %74
  br label %80

80:                                               ; preds = %79, %69
  call void @llvm.lifetime.end.p0(i64 8, ptr %6) #13
  br label %9, !llvm.loop !175

81:                                               ; preds = %9
  br label %82

82:                                               ; preds = %108, %81
  %83 = load ptr, ptr %5, align 8, !tbaa !81
  %84 = icmp ne ptr %83, null
  br i1 %84, label %85, label %109

85:                                               ; preds = %82
  call void @llvm.lifetime.start.p0(i64 8, ptr %8) #13
  %86 = load ptr, ptr %5, align 8, !tbaa !81
  store ptr %86, ptr %8, align 8, !tbaa !81
  %87 = load ptr, ptr %8, align 8, !tbaa !81
  %88 = getelementptr inbounds nuw %struct.child_to_clean, ptr %87, i32 0, i32 2
  %89 = load ptr, ptr %88, align 8, !tbaa !86
  store ptr %89, ptr %5, align 8, !tbaa !81
  br label %90

90:                                               ; preds = %102, %85
  %91 = load ptr, ptr %8, align 8, !tbaa !81
  %92 = getelementptr inbounds nuw %struct.child_to_clean, ptr %91, i32 0, i32 0
  %93 = load i32, ptr %92, align 8, !tbaa !83
  %94 = call i32 @waitpid(i32 noundef %93, ptr noundef null, i32 noundef 0)
  %95 = icmp slt i32 %94, 0
  br i1 %95, label %96, label %100

96:                                               ; preds = %90
  %97 = call ptr @__errno_location() #15
  %98 = load i32, ptr %97, align 4, !tbaa !16
  %99 = icmp eq i32 %98, 4
  br label %100

100:                                              ; preds = %96, %90
  %101 = phi i1 [ false, %90 ], [ %99, %96 ]
  br i1 %101, label %102, label %103

102:                                              ; preds = %100
  br label %90, !llvm.loop !176

103:                                              ; preds = %100
  %104 = load i32, ptr %4, align 4, !tbaa !16
  %105 = icmp ne i32 %104, 0
  br i1 %105, label %108, label %106

106:                                              ; preds = %103
  %107 = load ptr, ptr %8, align 8, !tbaa !81
  call void @free(ptr noundef %107) #13
  br label %108

108:                                              ; preds = %106, %103
  call void @llvm.lifetime.end.p0(i64 8, ptr %8) #13
  br label %82, !llvm.loop !177

109:                                              ; preds = %82
  call void @llvm.lifetime.end.p0(i64 8, ptr %5) #13
  ret void
}

; Function Attrs: nounwind uwtable
define internal void @cleanup_children_on_signal(i32 noundef %0) #0 {
  %2 = alloca i32, align 4
  store i32 %0, ptr %2, align 4, !tbaa !16
  %3 = load i32, ptr %2, align 4, !tbaa !16
  call void @cleanup_children(i32 noundef %3, i32 noundef 1)
  %4 = load i32, ptr %2, align 4, !tbaa !16
  %5 = call i32 @sigchain_pop(i32 noundef %4)
  %6 = load i32, ptr %2, align 4, !tbaa !16
  %7 = call i32 @raise(i32 noundef %6) #13
  ret void
}