; Function Attrs: nounwind uwtable
define internal void @cleanup_children_on_signal(i32 noundef %0) #3 {
  %2 = load ptr, ptr @children_to_clean, align 8, !tbaa !77
  %.not33.i = icmp eq ptr %2, null
  br i1 %.not33.i, label %cleanup_children.exit, label %.lr.ph.split.us.i

.lr.ph.split.us.i:                                ; preds = %1, %15
  %3 = phi ptr [ %16, %15 ], [ %2, %1 ]
  %.034.us.i = phi ptr [ %.1.us.i, %15 ], [ null, %1 ]
  %4 = getelementptr inbounds nuw i8, ptr %3, i64 16
  %5 = load ptr, ptr %4, align 8, !tbaa !78
  store ptr %5, ptr @children_to_clean, align 8, !tbaa !77
  %6 = getelementptr inbounds nuw i8, ptr %3, i64 8
  %7 = load i32, ptr %3, align 8, !tbaa !72
  %8 = tail call i32 @kill(i32 noundef %7, i32 noundef %0) #21
  %9 = load ptr, ptr %6, align 8, !tbaa !76
  %.not30.us.i = icmp eq ptr %9, null
  br i1 %.not30.us.i, label %15, label %10

10:                                               ; preds = %.lr.ph.split.us.i
  %11 = getelementptr inbounds nuw i8, ptr %9, i64 104
  %12 = load i16, ptr %11, align 8
  %13 = and i16 %12, 512
  %.not31.us.i = icmp eq i16 %13, 0
  br i1 %.not31.us.i, label %15, label %14

14:                                               ; preds = %10
  store ptr %.034.us.i, ptr %4, align 8, !tbaa !78
  br label %15

15:                                               ; preds = %14, %10, %.lr.ph.split.us.i
  %.1.us.i = phi ptr [ %3, %14 ], [ %.034.us.i, %10 ], [ %.034.us.i, %.lr.ph.split.us.i ]
  %16 = load ptr, ptr @children_to_clean, align 8, !tbaa !77
  %.not.us.i = icmp eq ptr %16, null
  br i1 %.not.us.i, label %.preheader.i, label %.lr.ph.split.us.i, !llvm.loop !153

.preheader.i:                                     ; preds = %15
  %.not2635.i = icmp eq ptr %.1.us.i, null
  br i1 %.not2635.i, label %cleanup_children.exit, label %.lr.ph37.split.i

.lr.ph37.split.i:                                 ; preds = %.preheader.i, %.critedge.i
  %.236.i = phi ptr [ %18, %.critedge.i ], [ %.1.us.i, %.preheader.i ]
  %17 = getelementptr inbounds nuw i8, ptr %.236.i, i64 16
  %18 = load ptr, ptr %17, align 8, !tbaa !78
  br label %19

19:                                               ; preds = %23, %.lr.ph37.split.i
  %20 = load i32, ptr %.236.i, align 8, !tbaa !72
  %21 = tail call i32 @waitpid(i32 noundef %20, ptr noundef null, i32 noundef 0) #21
  %22 = icmp slt i32 %21, 0
  br i1 %22, label %23, label %.critedge.i

23:                                               ; preds = %19
  %24 = tail call ptr @__errno_location() #23
  %25 = load i32, ptr %24, align 4, !tbaa !18
  %26 = icmp eq i32 %25, 4
  br i1 %26, label %19, label %.critedge.i, !llvm.loop !150

.critedge.i:                                      ; preds = %23, %19
  %.not26.i = icmp eq ptr %18, null
  br i1 %.not26.i, label %cleanup_children.exit, label %.lr.ph37.split.i, !llvm.loop !151

cleanup_children.exit:                            ; preds = %.critedge.i, %1, %.preheader.i
  %27 = tail call i32 @sigchain_pop(i32 noundef %0) #21
  %28 = tail call i32 @raise(i32 noundef %0) #21
  ret void
}